target datalayout = "e-m:e-p270:32:32-p271:32:32-p272:64:64-i64:64-i128:128-f80:128-n8:16:32:64-S128"
target triple = "x86_64-pc-linux-gnu"

%struct.stat = type { i64, i64, i64, i32, i32, i32, i32, i64, i64, i64, i64, %struct.timespec, %struct.timespec, %struct.timespec, [3 x i64] }
%struct.timespec = type { i64, i64 }

@.str.1 = private unnamed_addr constant [13 x i8] c"basebackup.c\00", align 1
@.str.57 = private unnamed_addr constant [16 x i8] c"PG_18_202502112\00", align 1
@.str.68 = private unnamed_addr constant [6 x i8] c"%s/%s\00", align 1
@.str.70 = private unnamed_addr constant [42 x i8] c"could not stat file or directory \22%s\22: %m\00", align 1
@__func__.sendTablespace = private unnamed_addr constant [15 x i8] c"sendTablespace\00", align 1

; Function Attrs: nounwind uwtable
define internal i64 @sendTablespace(ptr noundef %0, ptr noundef %1, i32 noundef %2, i1 noundef zeroext %3, ptr noundef %4, ptr noundef %5) #0 {
  %7 = alloca i64, align 8
  %8 = alloca ptr, align 8
  %9 = alloca ptr, align 8
  %10 = alloca i32, align 4
  %11 = alloca i8, align 1
  %12 = alloca ptr, align 8
  %13 = alloca ptr, align 8
  %14 = alloca i64, align 8
  %15 = alloca [1024 x i8], align 16
  %16 = alloca %struct.stat, align 8
  %17 = alloca i32, align 4
  store ptr %0, ptr %8, align 8
  store ptr %1, ptr %9, align 8
  store i32 %2, ptr %10, align 4
  %18 = zext i1 %3 to i8
  store i8 %18, ptr %11, align 1
  store ptr %4, ptr %12, align 8
  store ptr %5, ptr %13, align 8
  call void @llvm.lifetime.start.p0(i64 8, ptr %14) #13
  call void @llvm.lifetime.start.p0(i64 1024, ptr %15) #13
  call void @llvm.lifetime.start.p0(i64 144, ptr %16) #13
  %19 = getelementptr inbounds [1024 x i8], ptr %15, i64 0, i64 0
  %20 = load ptr, ptr %9, align 8
  %21 = call i32 (ptr, i64, ptr, ...) @pg_snprintf(ptr noundef %19, i64 noundef 1024, ptr noundef @.str.68, ptr noundef %20, ptr noundef @.str.57)
  %22 = getelementptr inbounds [1024 x i8], ptr %15, i64 0, i64 0
  %23 = call i32 @lstat(ptr noundef %22, ptr noundef %16) #13
  %24 = icmp ne i32 %23, 0
  br i1 %24, label %25, label %43

25:                                               ; preds = %6
  %26 = call ptr @__errno_location() #18
  %27 = load i32, ptr %26, align 4
  %28 = icmp ne i32 %27, 2
  br i1 %28, label %29, label %42

29:                                               ; preds = %25
  br label %30

30:                                               ; preds = %29
  br i1 true, label %31, label %33

31:                                               ; preds = %30
  %32 = call zeroext i1 @errstart_cold(i32 noundef 21, ptr noundef null) #14
  br i1 %32, label %35, label %39

33:                                               ; preds = %30
  %34 = call zeroext i1 @errstart(i32 noundef 21, ptr noundef null)
  br i1 %34, label %35, label %39

35:                                               ; preds = %33, %31
  %36 = call i32 @errcode_for_file_access()
  %37 = getelementptr inbounds [1024 x i8], ptr %15, i64 0, i64 0
  %38 = call i32 (ptr, ...) @errmsg(ptr noundef @.str.70, ptr noundef %37)
  call void @errfinish(ptr noundef @.str.1, i32 noundef 1160, ptr noundef @__func__.sendTablespace)
  br label %39

39:                                               ; preds = %35, %33, %31
  unreachable

40:                                               ; No predecessors!
  br label %41

41:                                               ; preds = %40
  br label %42

42:                                               ; preds = %41, %25
  store i64 0, ptr %7, align 8
  store i32 1, ptr %17, align 4
  br label %62

43:                                               ; preds = %6
  %44 = load ptr, ptr %8, align 8
  %45 = load i8, ptr %11, align 1, !range !4, !noundef !5
  %46 = trunc i8 %45 to i1
  %47 = call i64 @_tarWriteHeader(ptr noundef %44, ptr noundef @.str.57, ptr noundef null, ptr noundef %16, i1 noundef zeroext %46)
  store i64 %47, ptr %14, align 8
  %48 = load ptr, ptr %8, align 8
  %49 = getelementptr inbounds [1024 x i8], ptr %15, i64 0, i64 0
  %50 = load ptr, ptr %9, align 8
  %51 = call i64 @strlen(ptr noundef %50) #17
  %52 = trunc i64 %51 to i32
  %53 = load i8, ptr %11, align 1, !range !4, !noundef !5
  %54 = trunc i8 %53 to i1
  %55 = load ptr, ptr %12, align 8
  %56 = load i32, ptr %10, align 4
  %57 = load ptr, ptr %13, align 8
  %58 = call i64 @sendDir(ptr noundef %48, ptr noundef %49, i32 noundef %52, i1 noundef zeroext %54, ptr noundef null, i1 noundef zeroext true, ptr noundef %55, i32 noundef %56, ptr noundef %57)
  %59 = load i64, ptr %14, align 8
  %60 = add i64 %59, %58
  store i64 %60, ptr %14, align 8
  %61 = load i64, ptr %14, align 8
  store i64 %61, ptr %7, align 8
  store i32 1, ptr %17, align 4
  br label %62

62:                                               ; preds = %43, %42
  call void @llvm.lifetime.end.p0(i64 144, ptr %16) #13
  call void @llvm.lifetime.end.p0(i64 1024, ptr %15) #13
  call void @llvm.lifetime.end.p0(i64 8, ptr %14) #13
  %63 = load i64, ptr %7, align 8
  ret i64 %63
}