; Function Attrs: nounwind uwtable
define internal fastcc i64 @sendTablespace(ptr noundef %0, ptr noundef %1, i32 noundef %2, i1 noundef zeroext %3, ptr noundef %4, ptr noundef %5) unnamed_addr #0 {
  %7 = alloca [1024 x i8], align 16
  %8 = alloca %struct.stat, align 8
  call void @llvm.lifetime.start.p0(i64 1024, ptr nonnull %7) #19
  call void @llvm.lifetime.start.p0(i64 144, ptr nonnull %8) #19
  %9 = call i32 (ptr, i64, ptr, ...) @pg_snprintf(ptr noundef nonnull %7, i64 noundef 1024, ptr noundef nonnull @.str.68, ptr noundef %1, ptr noundef nonnull @.str.57) #19
  %10 = call i32 @lstat(ptr noundef nonnull %7, ptr noundef nonnull %8) #19
  %.not = icmp eq i32 %10, 0
  br i1 %.not, label %18, label %11

11:                                               ; preds = %6
  %12 = tail call ptr @__errno_location() #24
  %13 = load i32, ptr %12, align 4
  %.not11 = icmp eq i32 %13, 2
  br i1 %.not11, label %23, label %14

14:                                               ; preds = %11
  %15 = call zeroext i1 @errstart_cold(i32 noundef 21, ptr noundef null) #20
  call void @llvm.assume(i1 %15)
  %16 = call i32 @errcode_for_file_access() #19
  %17 = call i32 (ptr, ...) @errmsg(ptr noundef nonnull @.str.70, ptr noundef nonnull %7) #19
  call void @errfinish(ptr noundef nonnull @.str.1, i32 noundef 1160, ptr noundef nonnull @__func__.sendTablespace) #19
  unreachable

18:                                               ; preds = %6
  call fastcc void @_tarWriteHeader(ptr noundef %0, ptr noundef nonnull @.str.57, ptr noundef null, ptr noundef %8, i1 noundef zeroext %3)
  %19 = call i64 @strlen(ptr noundef nonnull dereferenceable(1) %1) #21
  %20 = trunc i64 %19 to i32
  %21 = call fastcc i64 @sendDir(ptr noundef %0, ptr noundef nonnull %7, i32 noundef %20, i1 noundef zeroext %3, ptr noundef null, i1 noundef zeroext true, ptr noundef %4, i32 noundef %2, ptr noundef %5)
  %22 = add i64 %21, 512
  br label %23

23:                                               ; preds = %11, %18
  %.0 = phi i64 [ %22, %18 ], [ 0, %11 ]
  call void @llvm.lifetime.end.p0(i64 144, ptr nonnull %8) #19
  call void @llvm.lifetime.end.p0(i64 1024, ptr nonnull %7) #19
  ret i64 %.0
}